; Function Attrs: mustprogress nofree norecurse nosync nounwind willreturn memory(read, inaccessiblemem: none) uwtable
define hidden noundef ptr @_ZN17ArchiveHeapWriter27buffered_addr_to_source_objEPh(ptr noundef %0) local_unnamed_addr #5 align 2 {
  %2 = load ptr, ptr @_ZN17ArchiveHeapWriter34_buffer_offset_to_source_obj_tableE, align 8
  %3 = load ptr, ptr @_ZN17ArchiveHeapWriter7_bufferE, align 8
  %4 = getelementptr inbounds i8, ptr %3, i64 8
  %5 = load ptr, ptr %4, align 8
  %6 = ptrtoint ptr %0 to i64
  %7 = ptrtoint ptr %5 to i64
  %8 = sub i64 %6, %7
  %9 = trunc i64 %8 to i32
  %10 = lshr i32 %9, 3
  %11 = xor i32 %10, %9
  %12 = load i32, ptr %2, align 8
  %13 = urem i32 %11, %12
  %14 = getelementptr inbounds i8, ptr %2, i64 8
  %15 = load ptr, ptr %14, align 8
  %16 = zext i32 %13 to i64
  %17 = getelementptr inbounds ptr, ptr %15, i64 %16
  %18 = load ptr, ptr %17, align 8
  %.not11.i.i.i = icmp eq ptr %18, null
  br i1 %.not11.i.i.i, label %_ZNK21ResourceHashtableBaseI34ResizeableResourceHashtableStorageImP7oopDescLN6AnyObj15allocation_typeE2EL8MEMFLAGS13EEmS2_LS4_2ELS5_13EXadL_Z14primitive_hashImEjRKT_EEXadL_Z16primitive_equalsImEbSA_SA_EEE3getERKm.exit.thread, label %.lr.ph.i.i.i

.lr.ph.i.i.i:                                     ; preds = %1, %26
  %19 = phi ptr [ %28, %26 ], [ %18, %1 ]
  %20 = load i32, ptr %19, align 8
  %21 = icmp eq i32 %20, %11
  br i1 %21, label %22, label %26

22:                                               ; preds = %.lr.ph.i.i.i
  %23 = getelementptr inbounds i8, ptr %19, i64 8
  %24 = load i64, ptr %23, align 8
  %25 = icmp eq i64 %8, %24
  br i1 %25, label %29, label %26

26:                                               ; preds = %22, %.lr.ph.i.i.i
  %27 = getelementptr inbounds i8, ptr %19, i64 24
  %28 = load ptr, ptr %27, align 8
  %.not.i.i.i = icmp eq ptr %28, null
  br i1 %.not.i.i.i, label %_ZNK21ResourceHashtableBaseI34ResizeableResourceHashtableStorageImP7oopDescLN6AnyObj15allocation_typeE2EL8MEMFLAGS13EEmS2_LS4_2ELS5_13EXadL_Z14primitive_hashImEjRKT_EEXadL_Z16primitive_equalsImEbSA_SA_EEE3getERKm.exit.thread, label %.lr.ph.i.i.i, !llvm.loop !21

29:                                               ; preds = %22
  %30 = getelementptr inbounds i8, ptr %19, i64 16
  %31 = load ptr, ptr %30, align 8
  br label %_ZNK21ResourceHashtableBaseI34ResizeableResourceHashtableStorageImP7oopDescLN6AnyObj15allocation_typeE2EL8MEMFLAGS13EEmS2_LS4_2ELS5_13EXadL_Z14primitive_hashImEjRKT_EEXadL_Z16primitive_equalsImEbSA_SA_EEE3getERKm.exit.thread

_ZNK21ResourceHashtableBaseI34ResizeableResourceHashtableStorageImP7oopDescLN6AnyObj15allocation_typeE2EL8MEMFLAGS13EEmS2_LS4_2ELS5_13EXadL_Z14primitive_hashImEjRKT_EEXadL_Z16primitive_equalsImEbSA_SA_EEE3getERKm.exit.thread: ; preds = %26, %1, %29
  %.0 = phi ptr [ %31, %29 ], [ null, %1 ], [ null, %26 ]
  ret ptr %.0
}